target datalayout = "e-m:e-p270:32:32-p271:32:32-p272:64:64-i64:64-i128:128-f80:128-n8:16:32:64-S128"
target triple = "x86_64-pc-linux-gnu"

%struct.lxb_html_tokenizer = type { ptr, ptr, ptr, ptr, ptr, ptr, ptr, ptr, ptr, ptr, ptr, ptr, ptr, ptr, ptr, i64, ptr, ptr, ptr, ptr, ptr, i64, i64, ptr, ptr, i64, i64, i32, i32, i8, i32, i32, i8, ptr, i64 }
%struct.lxb_html_token_t = type { ptr, ptr, i64, i64, ptr, ptr, ptr, ptr, ptr, i64, i64, i32 }

; Function Attrs: nounwind uwtable
define internal void @lxb_html_token_clean(ptr noundef %0) #0 {
  %2 = alloca ptr, align 8
  store ptr %0, ptr %2, align 8
  %3 = load ptr, ptr %2, align 8
  call void @llvm.memset.p0.i64(ptr align 8 %3, i8 0, i64 96, i1 false)
  ret void
}

; Function Attrs: nounwind uwtable
define internal ptr @lxb_html_tokenizer_state_doctype(ptr noundef %0, ptr noundef %1, ptr noundef %2) #0 {
  %4 = alloca ptr, align 8
  %5 = alloca ptr, align 8
  %6 = alloca ptr, align 8
  %7 = alloca ptr, align 8
  store ptr %0, ptr %5, align 8
  store ptr %1, ptr %6, align 8
  store ptr %2, ptr %7, align 8
  %8 = load ptr, ptr %6, align 8
  %9 = load i8, ptr %8, align 1
  %10 = zext i8 %9 to i32
  switch i32 %10, label %87 [
    i32 9, label %11
    i32 10, label %11
    i32 12, label %11
    i32 13, label %11
    i32 32, label %11
    i32 62, label %14
    i32 0, label %15
  ]

11:                                               ; preds = %3, %3, %3, %3, %3
  %12 = load ptr, ptr %6, align 8
  %13 = getelementptr inbounds i8, ptr %12, i32 1
  store ptr %13, ptr %6, align 8
  br label %93

14:                                               ; preds = %3
  br label %93

15:                                               ; preds = %3
  %16 = load ptr, ptr %5, align 8
  %17 = getelementptr inbounds %struct.lxb_html_tokenizer, ptr %16, i32 0, i32 32
  %18 = load i8, ptr %17, align 4
  %19 = trunc i8 %18 to i1
  br i1 %19, label %20, label %86

20:                                               ; preds = %15
  %21 = load ptr, ptr %5, align 8
  %22 = getelementptr inbounds %struct.lxb_html_tokenizer, ptr %21, i32 0, i32 11
  %23 = load ptr, ptr %22, align 8
  %24 = load ptr, ptr %5, align 8
  %25 = getelementptr inbounds %struct.lxb_html_tokenizer, ptr %24, i32 0, i32 20
  %26 = load ptr, ptr %25, align 8
  %27 = call ptr @lxb_html_tokenizer_error_add(ptr noundef %23, ptr noundef %26, i32 noundef 14)
  %28 = load ptr, ptr %5, align 8
  %29 = getelementptr inbounds %struct.lxb_html_tokenizer, ptr %28, i32 0, i32 8
  %30 = load ptr, ptr %29, align 8
  %31 = getelementptr inbounds %struct.lxb_html_token_t, ptr %30, i32 0, i32 11
  %32 = load i32, ptr %31, align 8
  %33 = or i32 %32, 4
  store i32 %33, ptr %31, align 8
  br label %34

34:                                               ; preds = %20
  %35 = load ptr, ptr %5, align 8
  %36 = getelementptr inbounds %struct.lxb_html_tokenizer, ptr %35, i32 0, i32 8
  %37 = load ptr, ptr %36, align 8
  %38 = getelementptr inbounds %struct.lxb_html_token_t, ptr %37, i32 0, i32 0
  %39 = load ptr, ptr %38, align 8
  %40 = load ptr, ptr %5, align 8
  %41 = getelementptr inbounds %struct.lxb_html_tokenizer, ptr %40, i32 0, i32 8
  %42 = load ptr, ptr %41, align 8
  %43 = getelementptr inbounds %struct.lxb_html_token_t, ptr %42, i32 0, i32 1
  %44 = load ptr, ptr %43, align 8
  %45 = icmp ne ptr %39, %44
  br i1 %45, label %46, label %75

46:                                               ; preds = %34
  %47 = load ptr, ptr %5, align 8
  %48 = getelementptr inbounds %struct.lxb_html_tokenizer, ptr %47, i32 0, i32 2
  %49 = load ptr, ptr %48, align 8
  %50 = load ptr, ptr %5, align 8
  %51 = load ptr, ptr %5, align 8
  %52 = getelementptr inbounds %struct.lxb_html_tokenizer, ptr %51, i32 0, i32 8
  %53 = load ptr, ptr %52, align 8
  %54 = load ptr, ptr %5, align 8
  %55 = getelementptr inbounds %struct.lxb_html_tokenizer, ptr %54, i32 0, i32 3
  %56 = load ptr, ptr %55, align 8
  %57 = call ptr %49(ptr noundef %50, ptr noundef %53, ptr noundef %56)
  %58 = load ptr, ptr %5, align 8
  %59 = getelementptr inbounds %struct.lxb_html_tokenizer, ptr %58, i32 0, i32 8
  store ptr %57, ptr %59, align 8
  %60 = load ptr, ptr %5, align 8
  %61 = getelementptr inbounds %struct.lxb_html_tokenizer, ptr %60, i32 0, i32 8
  %62 = load ptr, ptr %61, align 8
  %63 = icmp eq ptr %62, null
  br i1 %63, label %64, label %74

64:                                               ; preds = %46
  %65 = load ptr, ptr %5, align 8
  %66 = getelementptr inbounds %struct.lxb_html_tokenizer, ptr %65, i32 0, i32 31
  %67 = load i32, ptr %66, align 8
  %68 = icmp eq i32 %67, 0
  br i1 %68, label %69, label %72

69:                                               ; preds = %64
  %70 = load ptr, ptr %5, align 8
  %71 = getelementptr inbounds %struct.lxb_html_tokenizer, ptr %70, i32 0, i32 31
  store i32 1, ptr %71, align 8
  br label %72

72:                                               ; preds = %69, %64
  %73 = load ptr, ptr %7, align 8
  store ptr %73, ptr %4, align 8
  br label %97

74:                                               ; preds = %46
  br label %75

75:                                               ; preds = %74, %34
  %76 = load ptr, ptr %5, align 8
  %77 = getelementptr inbounds %struct.lxb_html_tokenizer, ptr %76, i32 0, i32 8
  %78 = load ptr, ptr %77, align 8
  call void @lxb_html_token_clean(ptr noundef %78)
  %79 = load ptr, ptr %5, align 8
  %80 = getelementptr inbounds %struct.lxb_html_tokenizer, ptr %79, i32 0, i32 16
  %81 = load ptr, ptr %80, align 8
  %82 = load ptr, ptr %5, align 8
  %83 = getelementptr inbounds %struct.lxb_html_tokenizer, ptr %82, i32 0, i32 17
  store ptr %81, ptr %83, align 8
  br label %84

84:                                               ; preds = %75
  %85 = load ptr, ptr %7, align 8
  store ptr %85, ptr %4, align 8
  br label %97

86:                                               ; preds = %15
  br label %87

87:                                               ; preds = %86, %3
  %88 = load ptr, ptr %5, align 8
  %89 = getelementptr inbounds %struct.lxb_html_tokenizer, ptr %88, i32 0, i32 11
  %90 = load ptr, ptr %89, align 8
  %91 = load ptr, ptr %6, align 8
  %92 = call ptr @lxb_html_tokenizer_error_add(ptr noundef %90, ptr noundef %91, i32 noundef 31)
  br label %93

93:                                               ; preds = %87, %14, %11
  %94 = load ptr, ptr %5, align 8
  %95 = getelementptr inbounds %struct.lxb_html_tokenizer, ptr %94, i32 0, i32 0
  store ptr @lxb_html_tokenizer_state_doctype_before_name, ptr %95, align 8
  %96 = load ptr, ptr %6, align 8
  store ptr %96, ptr %4, align 8
  br label %97

97:                                               ; preds = %93, %84, %72
  %98 = load ptr, ptr %4, align 8
  ret ptr %98
}

; Function Attrs: nounwind uwtable
define hidden ptr @lxb_html_tokenizer_state_doctype_before(ptr noundef %0, ptr noundef %1, ptr noundef %2) #0 {
  %4 = alloca ptr, align 8
  %5 = alloca ptr, align 8
  %6 = alloca ptr, align 8
  store ptr %0, ptr %4, align 8
  store ptr %1, ptr %5, align 8
  store ptr %2, ptr %6, align 8
  %7 = load ptr, ptr %4, align 8
  %8 = getelementptr inbounds %struct.lxb_html_tokenizer, ptr %7, i32 0, i32 32
  %9 = load i8, ptr %8, align 4
  %10 = trunc i8 %9 to i1
  %11 = zext i1 %10 to i32
  %12 = icmp eq i32 %11, 0
  br i1 %12, label %13, label %19

13:                                               ; preds = %3
  %14 = load ptr, ptr %5, align 8
  %15 = load ptr, ptr %4, align 8
  %16 = getelementptr inbounds %struct.lxb_html_tokenizer, ptr %15, i32 0, i32 8
  %17 = load ptr, ptr %16, align 8
  %18 = getelementptr inbounds %struct.lxb_html_token_t, ptr %17, i32 0, i32 1
  store ptr %14, ptr %18, align 8
  br label %27

19:                                               ; preds = %3
  %20 = load ptr, ptr %4, align 8
  %21 = getelementptr inbounds %struct.lxb_html_tokenizer, ptr %20, i32 0, i32 20
  %22 = load ptr, ptr %21, align 8
  %23 = load ptr, ptr %4, align 8
  %24 = getelementptr inbounds %struct.lxb_html_tokenizer, ptr %23, i32 0, i32 8
  %25 = load ptr, ptr %24, align 8
  %26 = getelementptr inbounds %struct.lxb_html_token_t, ptr %25, i32 0, i32 1
  store ptr %22, ptr %26, align 8
  br label %27

27:                                               ; preds = %19, %13
  %28 = load ptr, ptr %4, align 8
  %29 = getelementptr inbounds %struct.lxb_html_tokenizer, ptr %28, i32 0, i32 8
  %30 = load ptr, ptr %29, align 8
  %31 = getelementptr inbounds %struct.lxb_html_token_t, ptr %30, i32 0, i32 10
  store i64 5, ptr %31, align 8
  %32 = load ptr, ptr %4, align 8
  %33 = load ptr, ptr %5, align 8
  %34 = load ptr, ptr %6, align 8
  %35 = call ptr @lxb_html_tokenizer_state_doctype(ptr noundef %32, ptr noundef %33, ptr noundef %34)
  ret ptr %35
}