; Function Attrs: nounwind uwtable
define hidden ptr @lxb_html_tokenizer_state_doctype_before(ptr noundef %0, ptr noundef %1, ptr noundef readnone %2) local_unnamed_addr #0 {
  %4 = getelementptr inbounds i8, ptr %0, i64 236
  %5 = load i8, ptr %4, align 4
  %6 = and i8 %5, 1
  %7 = icmp eq i8 %6, 0
  br i1 %7, label %11, label %8

8:                                                ; preds = %3
  %9 = getelementptr inbounds i8, ptr %0, i64 160
  %10 = load ptr, ptr %9, align 8
  br label %11

11:                                               ; preds = %3, %8
  %.sink = phi ptr [ %10, %8 ], [ %1, %3 ]
  %12 = getelementptr inbounds i8, ptr %0, i64 64
  %13 = load ptr, ptr %12, align 8
  %14 = getelementptr inbounds i8, ptr %13, i64 8
  store ptr %.sink, ptr %14, align 8
  %15 = getelementptr inbounds i8, ptr %0, i64 64
  %16 = load ptr, ptr %15, align 8
  %17 = getelementptr inbounds i8, ptr %16, i64 80
  store i64 5, ptr %17, align 8
  %18 = load i8, ptr %1, align 1
  switch i8 %18, label %55 [
    i8 9, label %19
    i8 10, label %19
    i8 12, label %19
    i8 13, label %19
    i8 32, label %19
    i8 62, label %59
    i8 0, label %21
  ]

19:                                               ; preds = %11, %11, %11, %11, %11
  %20 = getelementptr inbounds i8, ptr %1, i64 1
  br label %59

21:                                               ; preds = %11
  %22 = load i8, ptr %4, align 4
  %23 = and i8 %22, 1
  %.not.i = icmp eq i8 %23, 0
  br i1 %.not.i, label %55, label %24

24:                                               ; preds = %21
  %25 = getelementptr inbounds i8, ptr %0, i64 88
  %26 = load ptr, ptr %25, align 8
  %27 = getelementptr inbounds i8, ptr %0, i64 160
  %28 = load ptr, ptr %27, align 8
  %29 = tail call ptr @lxb_html_tokenizer_error_add(ptr noundef %26, ptr noundef %28, i32 noundef 14) #4
  %30 = load ptr, ptr %15, align 8
  %31 = getelementptr inbounds i8, ptr %30, i64 88
  %32 = load i32, ptr %31, align 8
  %33 = or i32 %32, 4
  store i32 %33, ptr %31, align 8
  %34 = load ptr, ptr %15, align 8
  %35 = load ptr, ptr %34, align 8
  %36 = getelementptr inbounds i8, ptr %34, i64 8
  %37 = load ptr, ptr %36, align 8
  %.not27.i = icmp eq ptr %35, %37
  br i1 %.not27.i, label %50, label %38

38:                                               ; preds = %24
  %39 = getelementptr inbounds i8, ptr %0, i64 16
  %40 = load ptr, ptr %39, align 8
  %41 = getelementptr inbounds i8, ptr %0, i64 24
  %42 = load ptr, ptr %41, align 8
  %43 = tail call ptr %40(ptr noundef nonnull %0, ptr noundef nonnull %34, ptr noundef %42) #4
  store ptr %43, ptr %15, align 8
  %44 = icmp eq ptr %43, null
  br i1 %44, label %45, label %50

45:                                               ; preds = %38
  %46 = getelementptr inbounds i8, ptr %0, i64 232
  %47 = load i32, ptr %46, align 8
  %48 = icmp eq i32 %47, 0
  br i1 %48, label %49, label %lxb_html_tokenizer_state_doctype.exit

49:                                               ; preds = %45
  store i32 1, ptr %46, align 8
  br label %lxb_html_tokenizer_state_doctype.exit

50:                                               ; preds = %38, %24
  %51 = phi ptr [ %43, %38 ], [ %34, %24 ]
  tail call void @llvm.memset.p0.i64(ptr noundef nonnull align 8 dereferenceable(96) %51, i8 0, i64 96, i1 false)
  %52 = getelementptr inbounds i8, ptr %0, i64 128
  %53 = load ptr, ptr %52, align 8
  %54 = getelementptr inbounds i8, ptr %0, i64 136
  store ptr %53, ptr %54, align 8
  br label %lxb_html_tokenizer_state_doctype.exit

55:                                               ; preds = %21, %11
  %56 = getelementptr inbounds i8, ptr %0, i64 88
  %57 = load ptr, ptr %56, align 8
  %58 = tail call ptr @lxb_html_tokenizer_error_add(ptr noundef %57, ptr noundef nonnull %1, i32 noundef 31) #4
  br label %59

59:                                               ; preds = %55, %19, %11
  %.026.i = phi ptr [ %1, %55 ], [ %1, %11 ], [ %20, %19 ]
  store ptr @lxb_html_tokenizer_state_doctype_before_name, ptr %0, align 8
  br label %lxb_html_tokenizer_state_doctype.exit

lxb_html_tokenizer_state_doctype.exit:            ; preds = %45, %49, %50, %59
  %.0.i = phi ptr [ %.026.i, %59 ], [ %2, %50 ], [ %2, %49 ], [ %2, %45 ]
  ret ptr %.0.i
}